target datalayout = "e-m:e-p270:32:32-p271:32:32-p272:64:64-i64:64-i128:128-f80:128-n8:16:32:64-S128"
target triple = "x86_64-pc-linux-gnu"

; Function Attrs: nounwind uwtable
define i64 @getQubitBitMask(ptr noundef %0, i32 noundef %1) #0 {
  %3 = alloca ptr, align 8
  %4 = alloca i32, align 4
  %5 = alloca i64, align 8
  %6 = alloca i32, align 4
  store ptr %0, ptr %3, align 8, !tbaa !4
  store i32 %1, ptr %4, align 4, !tbaa !9
  call void @llvm.lifetime.start.p0(i64 8, ptr %5) #8
  store i64 0, ptr %5, align 8, !tbaa !11
  call void @llvm.lifetime.start.p0(i64 4, ptr %6) #8
  store i32 0, ptr %6, align 4, !tbaa !9
  br label %7

7:                                                ; preds = %22, %2
  %8 = load i32, ptr %6, align 4, !tbaa !9
  %9 = load i32, ptr %4, align 4, !tbaa !9
  %10 = icmp slt i32 %8, %9
  br i1 %10, label %12, label %11

11:                                               ; preds = %7
  call void @llvm.lifetime.end.p0(i64 4, ptr %6) #8
  br label %25

12:                                               ; preds = %7
  %13 = load i64, ptr %5, align 8, !tbaa !11
  %14 = load ptr, ptr %3, align 8, !tbaa !4
  %15 = load i32, ptr %6, align 4, !tbaa !9
  %16 = sext i32 %15 to i64
  %17 = getelementptr inbounds i32, ptr %14, i64 %16
  %18 = load i32, ptr %17, align 4, !tbaa !9
  %19 = zext i32 %18 to i64
  %20 = shl i64 1, %19
  %21 = or i64 %13, %20
  store i64 %21, ptr %5, align 8, !tbaa !11
  br label %22

22:                                               ; preds = %12
  %23 = load i32, ptr %6, align 4, !tbaa !9
  %24 = add nsw i32 %23, 1
  store i32 %24, ptr %6, align 4, !tbaa !9
  br label %7

25:                                               ; preds = %11
  %26 = load i64, ptr %5, align 8, !tbaa !11
  call void @llvm.lifetime.end.p0(i64 8, ptr %5) #8
  ret i64 %26
}